; Function Attrs: mustprogress nounwind uwtable
define dso_local noundef zeroext i1 @_ZNK4llvm6MCExpr18evaluateAsAbsoluteERlPKNS_11MCAssemblerEPKNS_8DenseMapIPKNS_9MCSectionEmNS_12DenseMapInfoIS8_vEENS_6detail12DenseMapPairIS8_mEEEEb(ptr noundef nonnull align 8 dereferenceable(16) %0, ptr nocapture noundef nonnull writeonly align 8 dereferenceable(8) %1, ptr noundef %2, ptr noundef %3, i1 noundef zeroext %4) local_unnamed_addr #0 align 2 {
  %6 = alloca %"class.llvm::MCValue", align 8
  call void @llvm.memset.p0.i64(ptr noundef nonnull align 8 dereferenceable(28) %6, i8 0, i64 28, i1 false)
  %7 = load i8, ptr %0, align 8
  %.not = icmp eq i8 %7, 1
  br i1 %.not, label %8, label %11

8:                                                ; preds = %5
  %9 = getelementptr inbounds nuw i8, ptr %0, i64 16
  %10 = load i64, ptr %9, align 8
  store i64 %10, ptr %1, align 8
  br label %20

11:                                               ; preds = %5
  %12 = call noundef zeroext i1 @_ZNK4llvm6MCExpr25evaluateAsRelocatableImplERNS_7MCValueEPKNS_11MCAssemblerEPKNS_7MCFixupEPKNS_8DenseMapIPKNS_9MCSectionEmNS_12DenseMapInfoISC_vEENS_6detail12DenseMapPairISC_mEEEEb(ptr noundef nonnull align 8 dereferenceable(16) %0, ptr noundef nonnull align 8 dereferenceable(28) %6, ptr noundef %2, ptr noundef null, ptr noundef %3, i1 noundef zeroext %4)
  %13 = getelementptr inbounds nuw i8, ptr %6, i64 16
  %14 = load i64, ptr %13, align 8
  store i64 %14, ptr %1, align 8
  br i1 %12, label %15, label %20

15:                                               ; preds = %11
  %16 = load ptr, ptr %6, align 8
  %.not.i = icmp eq ptr %16, null
  %17 = getelementptr inbounds nuw i8, ptr %6, i64 8
  %18 = load ptr, ptr %17, align 8
  %.not1.i = icmp eq ptr %18, null
  %19 = select i1 %.not.i, i1 %.not1.i, i1 false
  br label %20

20:                                               ; preds = %11, %15, %8
  %.0 = phi i1 [ true, %8 ], [ false, %11 ], [ %19, %15 ]
  ret i1 %.0
}